; Function Attrs: nofree norecurse nosync nounwind memory(read, inaccessiblemem: none) uwtable
define double @N_VWSqrSumMaskLocal_Serial(ptr noundef readonly captures(none) %0, ptr noundef readonly captures(none) %1, ptr noundef readonly captures(none) %2) #8 {
  %4 = load ptr, ptr %0, align 8, !tbaa !54
  %5 = load i64, ptr %4, align 8, !tbaa !55
  %6 = getelementptr inbounds nuw i8, ptr %4, i64 16
  %7 = load ptr, ptr %6, align 8, !tbaa !61
  %8 = load ptr, ptr %1, align 8, !tbaa !54
  %9 = getelementptr inbounds nuw i8, ptr %8, i64 16
  %10 = load ptr, ptr %9, align 8, !tbaa !61
  %11 = load ptr, ptr %2, align 8, !tbaa !54
  %12 = getelementptr inbounds nuw i8, ptr %11, i64 16
  %13 = load ptr, ptr %12, align 8, !tbaa !61
  %14 = icmp sgt i64 %5, 0
  br i1 %14, label %.lr.ph, label %._crit_edge

.lr.ph:                                           ; preds = %3, %25
  %.018 = phi i64 [ %26, %25 ], [ 0, %3 ]
  %.01617 = phi double [ %.1, %25 ], [ 0.000000e+00, %3 ]
  %15 = getelementptr inbounds nuw double, ptr %13, i64 %.018
  %16 = load double, ptr %15, align 8, !tbaa !64
  %17 = fcmp ogt double %16, 0.000000e+00
  br i1 %17, label %18, label %25

18:                                               ; preds = %.lr.ph
  %19 = getelementptr inbounds nuw double, ptr %7, i64 %.018
  %20 = load double, ptr %19, align 8, !tbaa !64
  %21 = getelementptr inbounds nuw double, ptr %10, i64 %.018
  %22 = load double, ptr %21, align 8, !tbaa !64
  %23 = fmul double %20, %22
  %24 = tail call double @llvm.fmuladd.f64(double %23, double %23, double %.01617)
  br label %25

25:                                               ; preds = %.lr.ph, %18
  %.1 = phi double [ %24, %18 ], [ %.01617, %.lr.ph ]
  %26 = add nuw nsw i64 %.018, 1
  %exitcond.not = icmp eq i64 %26, %5
  br i1 %exitcond.not, label %._crit_edge, label %.lr.ph

._crit_edge:                                      ; preds = %25, %3
  %.016.lcssa = phi double [ 0.000000e+00, %3 ], [ %.1, %25 ]
  ret double %.016.lcssa
}